target datalayout = "e-m:e-p270:32:32-p271:32:32-p272:64:64-i64:64-i128:128-f80:128-n8:16:32:64-S128"
target triple = "x86_64-pc-linux-gnu"

; Function Attrs: alwaysinline nounwind
define internal ptr @memcpy.inline(ptr noalias nonnull %0, ptr noalias nonnull %1, i64 %2) #3 {
  %4 = alloca ptr, align 8
  %5 = alloca ptr, align 8
  %6 = alloca i64, align 8
  store ptr %0, ptr %4, align 8
  store ptr %1, ptr %5, align 8
  store i64 %2, ptr %6, align 8
  %7 = load ptr, ptr %4, align 8
  %8 = load ptr, ptr %5, align 8
  %9 = load i64, ptr %6, align 8
  %10 = load ptr, ptr %4, align 8
  %11 = call i64 @llvm.objectsize.i64.p0(ptr %10, i1 false, i1 true, i1 true)
  %12 = call ptr @__memcpy_chk(ptr noundef %7, ptr noundef %8, i64 noundef %9, i64 noundef %11) #8
  ret ptr %12
}

; Function Attrs: inlinehint nounwind ssp uwtable
define internal i64 @load64_le(ptr noundef %0) #2 {
  %2 = alloca ptr, align 8
  %3 = alloca i64, align 8
  store ptr %0, ptr %2, align 8
  call void @llvm.lifetime.start.p0(i64 8, ptr %3) #8
  %4 = load ptr, ptr %2, align 8
  %5 = call ptr @memcpy.inline(ptr noundef %3, ptr noundef %4, i64 noundef 8) #8
  %6 = load i64, ptr %3, align 8
  call void @llvm.lifetime.end.p0(i64 8, ptr %3) #8
  ret i64 %6
}

; Function Attrs: nounwind ssp uwtable
define hidden void @_sodium_fe25519_frombytes(ptr noundef %0, ptr noundef %1) #0 {
  %3 = alloca ptr, align 8
  %4 = alloca ptr, align 8
  %5 = alloca i64, align 8
  %6 = alloca i64, align 8
  %7 = alloca i64, align 8
  %8 = alloca i64, align 8
  %9 = alloca i64, align 8
  %10 = alloca i64, align 8
  store ptr %0, ptr %3, align 8
  store ptr %1, ptr %4, align 8
  call void @llvm.lifetime.start.p0(i64 8, ptr %5) #8
  store i64 2251799813685247, ptr %5, align 8
  call void @llvm.lifetime.start.p0(i64 8, ptr %6) #8
  call void @llvm.lifetime.start.p0(i64 8, ptr %7) #8
  call void @llvm.lifetime.start.p0(i64 8, ptr %8) #8
  call void @llvm.lifetime.start.p0(i64 8, ptr %9) #8
  call void @llvm.lifetime.start.p0(i64 8, ptr %10) #8
  %11 = load ptr, ptr %4, align 8
  %12 = call i64 @load64_le(ptr noundef %11)
  %13 = and i64 %12, 2251799813685247
  store i64 %13, ptr %6, align 8
  %14 = load ptr, ptr %4, align 8
  %15 = getelementptr i8, ptr %14, i64 6
  %16 = call i64 @load64_le(ptr noundef %15)
  %17 = lshr i64 %16, 3
  %18 = and i64 %17, 2251799813685247
  store i64 %18, ptr %7, align 8
  %19 = load ptr, ptr %4, align 8
  %20 = getelementptr i8, ptr %19, i64 12
  %21 = call i64 @load64_le(ptr noundef %20)
  %22 = lshr i64 %21, 6
  %23 = and i64 %22, 2251799813685247
  store i64 %23, ptr %8, align 8
  %24 = load ptr, ptr %4, align 8
  %25 = getelementptr i8, ptr %24, i64 19
  %26 = call i64 @load64_le(ptr noundef %25)
  %27 = lshr i64 %26, 1
  %28 = and i64 %27, 2251799813685247
  store i64 %28, ptr %9, align 8
  %29 = load ptr, ptr %4, align 8
  %30 = getelementptr i8, ptr %29, i64 24
  %31 = call i64 @load64_le(ptr noundef %30)
  %32 = lshr i64 %31, 12
  %33 = and i64 %32, 2251799813685247
  store i64 %33, ptr %10, align 8
  %34 = load i64, ptr %6, align 8
  %35 = load ptr, ptr %3, align 8
  %36 = getelementptr i64, ptr %35, i64 0
  store i64 %34, ptr %36, align 8
  %37 = load i64, ptr %7, align 8
  %38 = load ptr, ptr %3, align 8
  %39 = getelementptr i64, ptr %38, i64 1
  store i64 %37, ptr %39, align 8
  %40 = load i64, ptr %8, align 8
  %41 = load ptr, ptr %3, align 8
  %42 = getelementptr i64, ptr %41, i64 2
  store i64 %40, ptr %42, align 8
  %43 = load i64, ptr %9, align 8
  %44 = load ptr, ptr %3, align 8
  %45 = getelementptr i64, ptr %44, i64 3
  store i64 %43, ptr %45, align 8
  %46 = load i64, ptr %10, align 8
  %47 = load ptr, ptr %3, align 8
  %48 = getelementptr i64, ptr %47, i64 4
  store i64 %46, ptr %48, align 8
  call void @llvm.lifetime.end.p0(i64 8, ptr %10) #8
  call void @llvm.lifetime.end.p0(i64 8, ptr %9) #8
  call void @llvm.lifetime.end.p0(i64 8, ptr %8) #8
  call void @llvm.lifetime.end.p0(i64 8, ptr %7) #8
  call void @llvm.lifetime.end.p0(i64 8, ptr %6) #8
  call void @llvm.lifetime.end.p0(i64 8, ptr %5) #8
  ret void
}