; Function Attrs: mustprogress nofree norecurse nosync nounwind ssp willreturn memory(argmem: readwrite) uwtable
define hidden void @_sodium_fe25519_frombytes(ptr noundef writeonly captures(none) initializes((0, 40)) %0, ptr noundef readonly captures(none) %1) local_unnamed_addr #0 {
  %3 = load i64, ptr %1, align 1
  %4 = and i64 %3, 2251799813685247
  %5 = getelementptr i8, ptr %1, i64 6
  %6 = load i64, ptr %5, align 1
  %7 = lshr i64 %6, 3
  %8 = and i64 %7, 2251799813685247
  %9 = getelementptr i8, ptr %1, i64 12
  %10 = load i64, ptr %9, align 1
  %11 = lshr i64 %10, 6
  %12 = and i64 %11, 2251799813685247
  %13 = getelementptr i8, ptr %1, i64 19
  %14 = load i64, ptr %13, align 1
  %15 = lshr i64 %14, 1
  %16 = and i64 %15, 2251799813685247
  %17 = getelementptr i8, ptr %1, i64 24
  %18 = load i64, ptr %17, align 1
  %19 = lshr i64 %18, 12
  %20 = and i64 %19, 2251799813685247
  store i64 %4, ptr %0, align 8
  %21 = getelementptr i8, ptr %0, i64 8
  store i64 %8, ptr %21, align 8
  %22 = getelementptr i8, ptr %0, i64 16
  store i64 %12, ptr %22, align 8
  %23 = getelementptr i8, ptr %0, i64 24
  store i64 %16, ptr %23, align 8
  %24 = getelementptr i8, ptr %0, i64 32
  store i64 %20, ptr %24, align 8
  ret void
}